target datalayout = "e-m:e-p270:32:32-p271:32:32-p272:64:64-i64:64-i128:128-f80:128-n8:16:32:64-S128"
target triple = "x86_64-pc-linux-gnu"

%struct.BackendGlobalData = type <{ ptr, ptr, i8, i8, i8, i8, i8, i8, i8, i8, i8, [3 x i8], i32, ptr, ptr, ptr, ptr, ptr, ptr, ptr, ptr, ptr, ptr, ptr, ptr, ptr, i32, %struct.jvmtiCapabilities, i8, [3 x i8], %struct.jvmtiEventCallbacks, ptr, ptr, ptr, ptr, ptr, ptr, ptr, i32, [4 x i8], ptr, i64, i32, [4 x i8], ptr, i32, i32, i8, i8, [6 x i8] }>
%struct.jvmtiCapabilities = type { i64, i64 }
%struct.jvmtiEventCallbacks = type { ptr, ptr, ptr, ptr, ptr, ptr, ptr, ptr, ptr, ptr, ptr, ptr, ptr, ptr, ptr, ptr, ptr, ptr, ptr, ptr, ptr, ptr, ptr, ptr, ptr, ptr, ptr, ptr, ptr, ptr, ptr, ptr, ptr, ptr, ptr, ptr, ptr, ptr, ptr }

@gdata = external global ptr, align 8
@trackingEnv = internal global ptr null, align 8
@.str = private unnamed_addr constant [53 x i8] c"src/jdk.jdwp.agent/share/native/libjdwp/classTrack.c\00", align 1
@.str.1 = private unnamed_addr constant [25 x i8] c"jvmti_env == trackingEnv\00", align 1

; Function Attrs: nounwind uwtable
define hidden void @cbTrackingObjectFree(ptr noundef %0, i64 noundef %1) #0 {
  %3 = alloca ptr, align 8
  %4 = alloca i64, align 8
  store ptr %0, ptr %3, align 8
  store i64 %1, ptr %4, align 8
  br label %5

5:                                                ; preds = %2
  %6 = load ptr, ptr @gdata, align 8
  %7 = icmp ne ptr %6, null
  br i1 %7, label %8, label %19

8:                                                ; preds = %5
  %9 = load ptr, ptr @gdata, align 8
  %10 = getelementptr inbounds %struct.BackendGlobalData, ptr %9, i32 0, i32 3
  %11 = load i8, ptr %10, align 1
  %12 = zext i8 %11 to i32
  %13 = icmp ne i32 %12, 0
  br i1 %13, label %14, label %19

14:                                               ; preds = %8
  %15 = load ptr, ptr %3, align 8
  %16 = load ptr, ptr @trackingEnv, align 8
  %17 = icmp eq ptr %15, %16
  br i1 %17, label %19, label %18

18:                                               ; preds = %14
  call void @jdiAssertionFailed(ptr noundef @.str, i32 noundef 57, ptr noundef @.str.1)
  br label %19

19:                                               ; preds = %18, %14, %8, %5
  br label %20

20:                                               ; preds = %19
  %21 = load i64, ptr %4, align 8
  %22 = inttoptr i64 %21 to ptr
  %23 = call ptr @getEnv()
  %24 = call zeroext i8 @eventHandler_synthesizeUnloadEvent(ptr noundef %22, ptr noundef %23)
  ret void
}