; Function Attrs: nounwind uwtable
define hidden void @cbTrackingObjectFree(ptr noundef readnone %0, i64 noundef %1) #0 {
  %3 = load ptr, ptr @gdata, align 8
  %.not = icmp eq ptr %3, null
  br i1 %.not, label %10, label %4

4:                                                ; preds = %2
  %5 = getelementptr inbounds i8, ptr %3, i64 17
  %6 = load i8, ptr %5, align 1
  %.not1 = icmp eq i8 %6, 0
  %7 = load ptr, ptr @trackingEnv, align 8
  %8 = icmp eq ptr %7, %0
  %or.cond = select i1 %.not1, i1 true, i1 %8
  br i1 %or.cond, label %10, label %9

9:                                                ; preds = %4
  tail call void @jdiAssertionFailed(ptr noundef nonnull @.str, i32 noundef 57, ptr noundef nonnull @.str.1) #5
  br label %10

10:                                               ; preds = %2, %4, %9
  %11 = inttoptr i64 %1 to ptr
  %12 = tail call ptr @getEnv() #5
  %13 = tail call zeroext i8 @eventHandler_synthesizeUnloadEvent(ptr noundef %11, ptr noundef %12) #5
  ret void
}